#include <math.h>
#include <stdio.h>
#include <stdlib.h>
#include <string.h>

int main()
{
	int n,m,i,j,t=0,a[1000];
	scanf("%d %d\n",&n,&m);
	for(i=0;i<n;i++){
		scanf("%d ",&a[i]);
	}
	for(i=0;i<n;i++){
		for(j=1;j<n-i;j++){
			if(a[i]+a[i+j]==m){
				t++;
			}
		}
	}
	if(t==0){
		printf("no");
	}
	else if(t!=0){
		printf("yes");
	}
	return 0;
}

